; ModuleID = 'source-C-CXX/42/1166.cpp'
source_filename = "source-C-CXX/42/1166.cpp"
target datalayout = "e-m:e-p270:32:32-p271:32:32-p272:64:64-i64:64-f80:128-n8:16:32:64-S128"
target triple = "x86_64-pc-linux-gnu"

%"class.std::ios_base::Init" = type { i8 }
%"class.std::basic_istream" = type { i32 (...)**, i64, %"class.std::basic_ios" }
%"class.std::basic_ios" = type { %"class.std::ios_base", %"class.std::basic_ostream"*, i8, i8, %"class.std::basic_streambuf"*, %"class.std::ctype"*, %"class.std::num_put"*, %"class.std::num_get"* }
%"class.std::ios_base" = type { i32 (...)**, i64, i64, i32, i32, i32, %"struct.std::ios_base::_Callback_list"*, %"struct.std::ios_base::_Words", [8 x %"struct.std::ios_base::_Words"], i32, %"struct.std::ios_base::_Words"*, %"class.std::locale" }
%"struct.std::ios_base::_Callback_list" = type { %"struct.std::ios_base::_Callback_list"*, void (i32, %"class.std::ios_base"*, i32)*, i32, i32 }
%"struct.std::ios_base::_Words" = type { i8*, i64 }
%"class.std::locale" = type { %"class.std::locale::_Impl"* }
%"class.std::locale::_Impl" = type { i32, %"class.std::locale::facet"**, i64, %"class.std::locale::facet"**, i8** }
%"class.std::locale::facet" = type <{ i32 (...)**, i32, [4 x i8] }>
%"class.std::basic_ostream" = type { i32 (...)**, %"class.std::basic_ios" }
%"class.std::basic_streambuf" = type { i32 (...)**, i8*, i8*, i8*, i8*, i8*, i8*, %"class.std::locale" }
%"class.std::ctype" = type <{ %"class.std::locale::facet.base", [4 x i8], %struct.__locale_struct*, i8, [7 x i8], i32*, i32*, i16*, i8, [256 x i8], [256 x i8], i8, [6 x i8] }>
%"class.std::locale::facet.base" = type <{ i32 (...)**, i32 }>
%struct.__locale_struct = type { [13 x %struct.__locale_data*], i16*, i32*, i32*, [13 x i8*] }
%struct.__locale_data = type opaque
%"class.std::num_put" = type { %"class.std::locale::facet.base", [4 x i8] }
%"class.std::num_get" = type { %"class.std::locale::facet.base", [4 x i8] }

@_ZStL8__ioinit = internal global %"class.std::ios_base::Init" zeroinitializer, align 1
@__dso_handle = external hidden global i8
@_ZSt3cin = external global %"class.std::basic_istream", align 8
@_ZSt4cout = external global %"class.std::basic_ostream", align 8
@.str = private unnamed_addr constant [2 x i8] c" \00", align 1
@llvm.global_ctors = appending global [1 x { i32, void ()*, i8* }] [{ i32, void ()*, i8* } { i32 65535, void ()* @_GLOBAL__sub_I_1166.cpp, i8* null }]

declare void @_ZNSt8ios_base4InitC1Ev(%"class.std::ios_base::Init"* nonnull align 1 dereferenceable(1)) unnamed_addr #0

; Function Attrs: nounwind
declare void @_ZNSt8ios_base4InitD1Ev(%"class.std::ios_base::Init"* nonnull align 1 dereferenceable(1)) unnamed_addr #1

; Function Attrs: nofree nounwind
declare i32 @__cxa_atexit(void (i8*)*, i8*, i8*) local_unnamed_addr #2

; Function Attrs: mustprogress norecurse sspstrong uwtable
define dso_local i32 @main() local_unnamed_addr #3 {
  %1 = alloca i32, align 4
  %2 = bitcast i32* %1 to i8*
  call void @llvm.lifetime.start.p0i8(i64 4, i8* nonnull %2) #9
  %3 = call nonnull align 8 dereferenceable(16) %"class.std::basic_istream"* @_ZNSirsERi(%"class.std::basic_istream"* nonnull align 8 dereferenceable(16) @_ZSt3cin, i32* nonnull align 4 dereferenceable(4) %1)
  %4 = load i32, i32* %1, align 4, !tbaa !5
  %5 = icmp slt i32 %4, 6
  br i1 %5, label %93, label %6

6:                                                ; preds = %0, %88
  %7 = phi i32 [ %89, %88 ], [ 3, %0 ]
  %8 = icmp ult i32 %7, 7
  br i1 %8, label %9, label %11

9:                                                ; preds = %6
  %10 = add nuw nsw i32 %7, 8
  br label %13

11:                                               ; preds = %6
  %12 = icmp eq i32 %7, 7
  br i1 %12, label %30, label %13

13:                                               ; preds = %11, %9
  %14 = phi i32 [ %10, %9 ], [ %7, %11 ]
  %15 = sitofp i32 %14 to double
  %16 = call double @sqrt(double %15) #9
  %17 = fcmp ult double %16, 3.000000e+00
  br i1 %17, label %30, label %18

18:                                               ; preds = %13, %18
  %19 = phi i32 [ %25, %18 ], [ 3, %13 ]
  %20 = phi i32 [ %24, %18 ], [ 1, %13 ]
  %21 = urem i32 %14, %19
  %22 = mul nuw nsw i32 %21, %20
  %23 = icmp ne i32 %22, 0
  %24 = zext i1 %23 to i32
  %25 = add nuw nsw i32 %19, 2
  %26 = sitofp i32 %25 to double
  %27 = call double @sqrt(double %15) #9
  %28 = fcmp ult double %27, %26
  br i1 %28, label %29, label %18, !llvm.loop !9

29:                                               ; preds = %18
  br i1 %23, label %30, label %88

30:                                               ; preds = %13, %11, %29
  %31 = load i32, i32* %1, align 4, !tbaa !5
  %32 = sub nsw i32 %31, %7
  %33 = icmp slt i32 %32, 7
  br i1 %33, label %34, label %36

34:                                               ; preds = %30
  %35 = add nsw i32 %32, 8
  br label %38

36:                                               ; preds = %30
  %37 = icmp eq i32 %32, 7
  br i1 %37, label %55, label %38

38:                                               ; preds = %36, %34
  %39 = phi i32 [ %35, %34 ], [ %32, %36 ]
  %40 = sitofp i32 %39 to double
  %41 = call double @sqrt(double %40) #9
  %42 = fcmp ult double %41, 3.000000e+00
  br i1 %42, label %55, label %43

43:                                               ; preds = %38, %43
  %44 = phi i32 [ %50, %43 ], [ 3, %38 ]
  %45 = phi i32 [ %49, %43 ], [ 1, %38 ]
  %46 = srem i32 %39, %44
  %47 = mul nuw nsw i32 %46, %45
  %48 = icmp ne i32 %47, 0
  %49 = zext i1 %48 to i32
  %50 = add nuw nsw i32 %44, 2
  %51 = sitofp i32 %50 to double
  %52 = call double @sqrt(double %40) #9
  %53 = fcmp ult double %52, %51
  br i1 %53, label %54, label %43, !llvm.loop !9

54:                                               ; preds = %43
  br i1 %48, label %55, label %88

55:                                               ; preds = %38, %36, %54
  %56 = call nonnull align 8 dereferenceable(8) %"class.std::basic_ostream"* @_ZNSolsEi(%"class.std::basic_ostream"* nonnull align 8 dereferenceable(8) @_ZSt4cout, i32 %7)
  %57 = call nonnull align 8 dereferenceable(8) %"class.std::basic_ostream"* @_ZSt16__ostream_insertIcSt11char_traitsIcEERSt13basic_ostreamIT_T0_ES6_PKS3_l(%"class.std::basic_ostream"* nonnull align 8 dereferenceable(8) %56, i8* nonnull getelementptr inbounds ([2 x i8], [2 x i8]* @.str, i64 0, i64 0), i64 1)
  %58 = call nonnull align 8 dereferenceable(8) %"class.std::basic_ostream"* @_ZNSolsEi(%"class.std::basic_ostream"* nonnull align 8 dereferenceable(8) %56, i32 %32)
  %59 = bitcast %"class.std::basic_ostream"* %58 to i8**
  %60 = load i8*, i8** %59, align 8, !tbaa !11
  %61 = getelementptr i8, i8* %60, i64 -24
  %62 = bitcast i8* %61 to i64*
  %63 = load i64, i64* %62, align 8
  %64 = bitcast %"class.std::basic_ostream"* %58 to i8*
  %65 = add nsw i64 %63, 240
  %66 = getelementptr inbounds i8, i8* %64, i64 %65
  %67 = bitcast i8* %66 to %"class.std::ctype"**
  %68 = load %"class.std::ctype"*, %"class.std::ctype"** %67, align 8, !tbaa !13
  %69 = icmp eq %"class.std::ctype"* %68, null
  br i1 %69, label %70, label %71

70:                                               ; preds = %55
  call void @_ZSt16__throw_bad_castv() #10
  unreachable

71:                                               ; preds = %55
  %72 = getelementptr inbounds %"class.std::ctype", %"class.std::ctype"* %68, i64 0, i32 8
  %73 = load i8, i8* %72, align 8, !tbaa !17
  %74 = icmp eq i8 %73, 0
  br i1 %74, label %78, label %75

75:                                               ; preds = %71
  %76 = getelementptr inbounds %"class.std::ctype", %"class.std::ctype"* %68, i64 0, i32 9, i64 10
  %77 = load i8, i8* %76, align 1, !tbaa !19
  br label %84

78:                                               ; preds = %71
  call void @_ZNKSt5ctypeIcE13_M_widen_initEv(%"class.std::ctype"* nonnull align 8 dereferenceable(570) %68)
  %79 = bitcast %"class.std::ctype"* %68 to i8 (%"class.std::ctype"*, i8)***
  %80 = load i8 (%"class.std::ctype"*, i8)**, i8 (%"class.std::ctype"*, i8)*** %79, align 8, !tbaa !11
  %81 = getelementptr inbounds i8 (%"class.std::ctype"*, i8)*, i8 (%"class.std::ctype"*, i8)** %80, i64 6
  %82 = load i8 (%"class.std::ctype"*, i8)*, i8 (%"class.std::ctype"*, i8)** %81, align 8
  %83 = call signext i8 %82(%"class.std::ctype"* nonnull align 8 dereferenceable(570) %68, i8 signext 10)
  br label %84

84:                                               ; preds = %75, %78
  %85 = phi i8 [ %77, %75 ], [ %83, %78 ]
  %86 = call nonnull align 8 dereferenceable(8) %"class.std::basic_ostream"* @_ZNSo3putEc(%"class.std::basic_ostream"* nonnull align 8 dereferenceable(8) %58, i8 signext %85)
  %87 = call nonnull align 8 dereferenceable(8) %"class.std::basic_ostream"* @_ZNSo5flushEv(%"class.std::basic_ostream"* nonnull align 8 dereferenceable(8) %86)
  br label %88

88:                                               ; preds = %29, %84, %54
  %89 = add nuw nsw i32 %7, 2
  %90 = load i32, i32* %1, align 4, !tbaa !5
  %91 = sdiv i32 %90, 2
  %92 = icmp sgt i32 %89, %91
  br i1 %92, label %93, label %6, !llvm.loop !20

93:                                               ; preds = %88, %0
  call void @llvm.lifetime.end.p0i8(i64 4, i8* nonnull %2) #9
  ret i32 0
}

; Function Attrs: argmemonly mustprogress nofree nosync nounwind willreturn
declare void @llvm.lifetime.start.p0i8(i64 immarg, i8* nocapture) #4

declare nonnull align 8 dereferenceable(16) %"class.std::basic_istream"* @_ZNSirsERi(%"class.std::basic_istream"* nonnull align 8 dereferenceable(16), i32* nonnull align 4 dereferenceable(4)) local_unnamed_addr #0

; Function Attrs: mustprogress nofree nounwind sspstrong uwtable
define dso_local i32 @_Z5primei(i32 %0) local_unnamed_addr #5 {
  %2 = icmp slt i32 %0, 7
  br i1 %2, label %3, label %5

3:                                                ; preds = %1
  %4 = add nsw i32 %0, 8
  br label %7

5:                                                ; preds = %1
  %6 = icmp eq i32 %0, 7
  br i1 %6, label %23, label %7

7:                                                ; preds = %5, %3
  %8 = phi i32 [ %4, %3 ], [ %0, %5 ]
  %9 = sitofp i32 %8 to double
  %10 = tail call double @sqrt(double %9) #9
  %11 = fcmp ult double %10, 3.000000e+00
  br i1 %11, label %23, label %12

12:                                               ; preds = %7, %12
  %13 = phi i32 [ %19, %12 ], [ 3, %7 ]
  %14 = phi i32 [ %18, %12 ], [ 1, %7 ]
  %15 = srem i32 %8, %13
  %16 = mul nuw nsw i32 %15, %14
  %17 = icmp ne i32 %16, 0
  %18 = zext i1 %17 to i32
  %19 = add nuw nsw i32 %13, 2
  %20 = sitofp i32 %19 to double
  %21 = tail call double @sqrt(double %9) #9
  %22 = fcmp ult double %21, %20
  br i1 %22, label %23, label %12, !llvm.loop !9

23:                                               ; preds = %12, %7, %5
  %24 = phi i32 [ 1, %5 ], [ 1, %7 ], [ %18, %12 ]
  ret i32 %24
}

declare nonnull align 8 dereferenceable(8) %"class.std::basic_ostream"* @_ZNSolsEi(%"class.std::basic_ostream"* nonnull align 8 dereferenceable(8), i32) local_unnamed_addr #0

; Function Attrs: argmemonly mustprogress nofree nosync nounwind willreturn
declare void @llvm.lifetime.end.p0i8(i64 immarg, i8* nocapture) #4

; Function Attrs: mustprogress nofree nounwind willreturn
declare double @sqrt(double) local_unnamed_addr #6

declare nonnull align 8 dereferenceable(8) %"class.std::basic_ostream"* @_ZSt16__ostream_insertIcSt11char_traitsIcEERSt13basic_ostreamIT_T0_ES6_PKS3_l(%"class.std::basic_ostream"* nonnull align 8 dereferenceable(8), i8*, i64) local_unnamed_addr #0

declare nonnull align 8 dereferenceable(8) %"class.std::basic_ostream"* @_ZNSo3putEc(%"class.std::basic_ostream"* nonnull align 8 dereferenceable(8), i8 signext) local_unnamed_addr #0

declare nonnull align 8 dereferenceable(8) %"class.std::basic_ostream"* @_ZNSo5flushEv(%"class.std::basic_ostream"* nonnull align 8 dereferenceable(8)) local_unnamed_addr #0

; Function Attrs: noreturn
declare void @_ZSt16__throw_bad_castv() local_unnamed_addr #7

declare void @_ZNKSt5ctypeIcE13_M_widen_initEv(%"class.std::ctype"* nonnull align 8 dereferenceable(570)) local_unnamed_addr #0

; Function Attrs: sspstrong uwtable
define internal void @_GLOBAL__sub_I_1166.cpp() #8 section ".text.startup" {
  tail call void @_ZNSt8ios_base4InitC1Ev(%"class.std::ios_base::Init"* nonnull align 1 dereferenceable(1) @_ZStL8__ioinit)
  %1 = tail call i32 @__cxa_atexit(void (i8*)* bitcast (void (%"class.std::ios_base::Init"*)* @_ZNSt8ios_base4InitD1Ev to void (i8*)*), i8* getelementptr inbounds (%"class.std::ios_base::Init", %"class.std::ios_base::Init"* @_ZStL8__ioinit, i64 0, i32 0), i8* nonnull @__dso_handle) #9
  ret void
}


!llvm.module.flags = !{!0, !1, !2, !3}
!llvm.ident = !{!4}

!0 = !{i32 1, !"wchar_size", i32 4}
!1 = !{i32 7, !"PIC Level", i32 2}
!2 = !{i32 7, !"PIE Level", i32 2}
!3 = !{i32 7, !"uwtable", i32 1}
!4 = !{!"clang version 13.0.0"}
!5 = !{!6, !6, i64 0}
!6 = !{!"int", !7, i64 0}
!7 = !{!"omnipotent char", !8, i64 0}
!8 = !{!"Simple C++ TBAA"}
!9 = distinct !{!9, !10}
!10 = !{!"llvm.loop.mustprogress"}
!11 = !{!12, !12, i64 0}
!12 = !{!"vtable pointer", !8, i64 0}
!13 = !{!14, !15, i64 240}
!14 = !{!"_ZTSSt9basic_iosIcSt11char_traitsIcEE", !15, i64 216, !7, i64 224, !16, i64 225, !15, i64 232, !15, i64 240, !15, i64 248, !15, i64 256}
!15 = !{!"any pointer", !7, i64 0}
!16 = !{!"bool", !7, i64 0}
!17 = !{!18, !7, i64 56}
!18 = !{!"_ZTSSt5ctypeIcE", !15, i64 16, !16, i64 24, !15, i64 32, !15, i64 40, !15, i64 48, !7, i64 56, !7, i64 57, !7, i64 313, !7, i64 569}
!19 = !{!7, !7, i64 0}
!20 = distinct !{!20, !10}
